Certificate:
    Data:
        Version: 3 (0x2)
        Serial Number: 4096 (0x1000)
        Signature Algorithm: sha256WithRSAEncryption
        Issuer: CN=Chapter 23 Lab CA
        Validity
            Not Before: Jan  1 00:00:00 2020 GMT
            Not After : Jan  1 00:00:00 2021 GMT
        Subject: CN=localhost
        Subject Public Key Info:
            Public Key Algorithm: rsaEncryption
                Public-Key: (2048 bit)
                Modulus:
                    00:d4:e0:a5:5e:d3:06:e0:60:2f:80:4d:6c:11:cf:
                    29:96:f1:c9:98:a1:10:00:03:bd:8b:8b:8a:8d:64:
                    d8:c8:e2:0f:e4:59:3f:4f:11:3f:7a:37:5b:20:c0:
                    8c:08:8d:17:41:06:db:92:eb:b1:f0:8d:bb:76:1b:
                    c2:b9:93:52:be:80:3b:cc:d7:b3:f9:c6:90:3d:1c:
                    61:71:b0:f4:41:f6:36:3a:59:f8:f7:ca:6b:ac:3a:
                    16:72:84:fe:84:c1:bc:96:8f:b7:a5:75:7d:49:4a:
                    88:85:a3:56:69:eb:f7:a2:0b:f1:ea:11:8d:cc:23:
                    6f:cd:4d:ee:bc:a3:23:ad:90:c3:cb:69:72:f9:2e:
                    95:7f:19:32:8c:1a:c2:7a:f9:20:d8:5e:66:69:a7:
                    f0:0f:63:6d:1f:ba:32:15:cb:b8:5e:e2:16:6c:90:
                    d9:a3:07:9a:a2:fe:80:c3:44:fd:cd:b1:1f:a6:bc:
                    3b:f2:35:15:19:44:e6:57:aa:cc:c3:f7:6b:00:c8:
                    d0:42:cb:5d:aa:83:e1:ec:17:97:39:26:dc:1a:d4:
                    b6:a0:a4:9c:08:ec:a2:2a:a5:9e:92:63:80:f8:66:
                    f9:be:f7:12:b8:5b:93:e9:9b:78:e7:68:c6:4d:43:
                    97:97:9f:fb:33:73:1e:af:84:34:09:06:21:60:5f:
                    16:05
                Exponent: 65537 (0x10001)
        X509v3 extensions:
            X509v3 Subject Alternative Name:
                DNS:localhost
            X509v3 Basic Constraints: critical
                CA:FALSE
            X509v3 Key Usage: critical
                Digital Signature, Key Encipherment
            X509v3 Extended Key Usage:
                TLS Web Server Authentication
            X509v3 Subject Key Identifier:
                42:14:66:45:85:4C:B5:67:74:EC:28:B1:42:87:BE:0E:18:DF:5C:91
            X509v3 Authority Key Identifier:
                E1:43:55:1F:C2:35:D3:FB:64:D3:B5:E7:14:87:99:C7:64:6B:90:EF
    Signature Algorithm: sha256WithRSAEncryption
    Signature Value:
        4a:e0:59:6c:26:ce:d0:24:4f:e6:4a:47:ba:4f:02:43:9e:9b:
        28:b7:17:1c:2d:bd:5c:51:ba:98:74:dd:1e:2c:7d:88:8e:e5:
        8e:c7:1a:4c:a2:10:be:be:f5:69:63:6f:4f:ab:a4:06:e1:59:
        0c:fa:87:bf:02:6d:1b:6e:1d:33:85:ea:ba:f6:b1:f8:d8:99:
        26:d5:d1:38:46:72:8b:25:17:3b:03:6c:e8:75:db:68:65:9e:
        53:f6:60:05:56:05:fa:c2:4a:60:6d:20:52:cc:26:ca:50:95:
        c7:59:e5:41:8f:02:20:00:59:ad:6b:49:54:07:18:90:67:4e:
        33:98:18:f8:eb:ef:58:16:ac:e0:18:1a:d1:03:7b:3e:34:e8:
        70:cb:5c:c0:81:80:1c:c8:d7:c9:31:3e:58:55:b0:c3:dd:e9:
        ac:a1:4b:a5:63:8f:91:ae:90:21:58:81:00:69:b7:c3:c3:99:
        6c:c9:7b:88:31:52:39:bd:e7:36:0f:68:db:2f:62:72:21:bf:
        48:cf:31:b7:06:69:ed:7b:f8:3a:6c:a9:2a:4b:b6:37:86:8b:
        47:b3:0b:69:3b:62:a4:ed:e5:63:9f:18:ed:d3:12:7a:24:ac:
        94:e3:3d:43:7a:18:dd:90:86:7c:e3:f1:24:40:59:d2:84:24:
        5c:a2:54:f0
-----BEGIN CERTIFICATE-----
MIIDOTCCAiGgAwIBAgICEAAwDQYJKoZIhvcNAQELBQAwHDEaMBgGA1UEAwwRQ2hh
cHRlciAyMyBMYWIgQ0EwHhcNMjAwMTAxMDAwMDAwWhcNMjEwMTAxMDAwMDAwWjAU
MRIwEAYDVQQDDAlsb2NhbGhvc3QwggEiMA0GCSqGSIb3DQEBAQUAA4IBDwAwggEK
AoIBAQDU4KVe0wbgYC+ATWwRzymW8cmYoRAAA72Li4qNZNjI4g/kWT9PET96N1sg
wIwIjRdBBtuS67Hwjbt2G8K5k1K+gDvM17P5xpA9HGFxsPRB9jY6Wfj3ymusOhZy
hP6EwbyWj7eldX1JSoiFo1Zp6/eiC/HqEY3MI2/NTe68oyOtkMPLaXL5LpV/GTKM
GsJ6+SDYXmZpp/APY20fujIVy7he4hZskNmjB5qi/oDDRP3NsR+mvDvyNRUZROZX
qszD92sAyNBCy12qg+HsF5c5Jtwa1LagpJwI7KIqpZ6SY4D4Zvm+9xK4W5Ppm3jn
aMZNQ5eXn/szcx6vhDQJBiFgXxYFAgMBAAGjgYwwgYkwFAYDVR0RBA0wC4IJbG9j
YWxob3N0MAwGA1UdEwEB/wQCMAAwDgYDVR0PAQH/BAQDAgWgMBMGA1UdJQQMMAoG
CCsGAQUFBwMBMB0GA1UdDgQWBBRCFGZFhUy1Z3TsKLFCh74OGN9ckTAfBgNVHSME
GDAWgBThQ1UfwjXT+2TTtecUh5nHZGuQ7zANBgkqhkiG9w0BAQsFAAOCAQEASuBZ
bCbO0CRP5kpHuk8CQ56bKLcXHC29XFG6mHTdHix9iI7ljscaTKIQvr71aWNvT6uk
BuFZDPqHvwJtG24dM4Xquvax+NiZJtXROEZyiyUXOwNs6HXbaGWeU/ZgBVYF+sJK
YG0gUswmylCVx1nlQY8CIABZrWtJVAcYkGdOM5gY+OvvWBas4Bga0QN7PjTocMtc
wIGAHMjXyTE+WFWww93prKFLpWOPka6QIViBAGm3w8OZbMl7iDFSOb3nNg9o2y9i
ciG/SM8xtwZp7Xv4OmypKku2N4aLR7MLaTtipO3lY58Y7dMSeiSslOM9Q3oY3ZCG
fOPxJEBZ0oQkXKJU8A==
-----END CERTIFICATE-----
